target datalayout = "e-m:e-p270:32:32-p271:32:32-p272:64:64-i64:64-i128:128-f80:128-n8:16:32:64-S128"
target triple = "x86_64-pc-linux-gnu"

@.str.232 = private unnamed_addr constant [27 x i8] c" stopped SIG%s (signal %d)\00", align 1
@.str.233 = private unnamed_addr constant [19 x i8] c" stopped signal %d\00", align 1
@.str.234 = private unnamed_addr constant [19 x i8] c" SIG%s (signal %d)\00", align 1
@.str.235 = private unnamed_addr constant [11 x i8] c" signal %d\00", align 1
@.str.236 = private unnamed_addr constant [9 x i8] c" exit %d\00", align 1
@.str.237 = private unnamed_addr constant [15 x i8] c" (core dumped)\00", align 1

; Function Attrs: inlinehint nounwind sspstrong uwtable
define internal i64 @rbimpl_strlen(ptr noundef nonnull %0) #1 {
  %2 = alloca ptr, align 8
  store ptr %0, ptr %2, align 8, !tbaa !64
  %3 = load ptr, ptr %2, align 8, !tbaa !64
  %4 = call i64 @strlen(ptr noundef %3) #29
  ret i64 %4
}

; Function Attrs: inlinehint nounwind sspstrong uwtable
define internal i64 @rbimpl_str_cat_cstr(i64 noundef %0, ptr noundef nonnull %1) #1 {
  %3 = alloca i64, align 8
  %4 = alloca ptr, align 8
  %5 = alloca i64, align 8
  store i64 %0, ptr %3, align 8, !tbaa !35
  store ptr %1, ptr %4, align 8, !tbaa !64
  call void @llvm.lifetime.start.p0(i64 8, ptr %5) #27
  %6 = load ptr, ptr %4, align 8, !tbaa !64
  %7 = call i64 @rbimpl_strlen(ptr noundef %6)
  store i64 %7, ptr %5, align 8, !tbaa !35
  %8 = load i64, ptr %3, align 8, !tbaa !35
  %9 = load ptr, ptr %4, align 8, !tbaa !64
  %10 = load i64, ptr %5, align 8, !tbaa !35
  %11 = call i64 @rb_str_cat(i64 noundef %8, ptr noundef %9, i64 noundef %10)
  call void @llvm.lifetime.end.p0(i64 8, ptr %5) #27
  ret i64 %11
}

; Function Attrs: nounwind sspstrong uwtable
define internal i64 @pst_message_status(i64 noundef %0, i32 noundef %1) #0 {
  %3 = alloca i64, align 8
  %4 = alloca i32, align 4
  %5 = alloca i32, align 4
  %6 = alloca ptr, align 8
  %7 = alloca i32, align 4
  %8 = alloca ptr, align 8
  store i64 %0, ptr %3, align 8, !tbaa !35
  store i32 %1, ptr %4, align 4, !tbaa !34
  %9 = load i32, ptr %4, align 4, !tbaa !34
  %10 = and i32 %9, 255
  %11 = icmp eq i32 %10, 127
  br i1 %11, label %12, label %30

12:                                               ; preds = %2
  call void @llvm.lifetime.start.p0(i64 4, ptr %5) #27
  %13 = load i32, ptr %4, align 4, !tbaa !34
  %14 = and i32 %13, 65280
  %15 = ashr i32 %14, 8
  store i32 %15, ptr %5, align 4, !tbaa !34
  call void @llvm.lifetime.start.p0(i64 8, ptr %6) #27
  %16 = load i32, ptr %5, align 4, !tbaa !34
  %17 = call ptr @ruby_signal_name(i32 noundef %16) #29
  store ptr %17, ptr %6, align 8, !tbaa !64
  %18 = load ptr, ptr %6, align 8, !tbaa !64
  %19 = icmp ne ptr %18, null
  br i1 %19, label %20, label %25

20:                                               ; preds = %12
  %21 = load i64, ptr %3, align 8, !tbaa !35
  %22 = load ptr, ptr %6, align 8, !tbaa !64
  %23 = load i32, ptr %5, align 4, !tbaa !34
  %24 = call i64 (i64, ptr, ...) @rb_str_catf(i64 noundef %21, ptr noundef @.str.232, ptr noundef %22, i32 noundef %23)
  br label %29

25:                                               ; preds = %12
  %26 = load i64, ptr %3, align 8, !tbaa !35
  %27 = load i32, ptr %5, align 4, !tbaa !34
  %28 = call i64 (i64, ptr, ...) @rb_str_catf(i64 noundef %26, ptr noundef @.str.233, i32 noundef %27)
  br label %29

29:                                               ; preds = %25, %20
  call void @llvm.lifetime.end.p0(i64 8, ptr %6) #27
  call void @llvm.lifetime.end.p0(i64 4, ptr %5) #27
  br label %30

30:                                               ; preds = %29, %2
  %31 = load i32, ptr %4, align 4, !tbaa !34
  %32 = and i32 %31, 127
  %33 = add i32 %32, 1
  %34 = trunc i32 %33 to i8
  %35 = sext i8 %34 to i32
  %36 = ashr i32 %35, 1
  %37 = icmp sgt i32 %36, 0
  br i1 %37, label %38, label %55

38:                                               ; preds = %30
  call void @llvm.lifetime.start.p0(i64 4, ptr %7) #27
  %39 = load i32, ptr %4, align 4, !tbaa !34
  %40 = and i32 %39, 127
  store i32 %40, ptr %7, align 4, !tbaa !34
  call void @llvm.lifetime.start.p0(i64 8, ptr %8) #27
  %41 = load i32, ptr %7, align 4, !tbaa !34
  %42 = call ptr @ruby_signal_name(i32 noundef %41) #29
  store ptr %42, ptr %8, align 8, !tbaa !64
  %43 = load ptr, ptr %8, align 8, !tbaa !64
  %44 = icmp ne ptr %43, null
  br i1 %44, label %45, label %50

45:                                               ; preds = %38
  %46 = load i64, ptr %3, align 8, !tbaa !35
  %47 = load ptr, ptr %8, align 8, !tbaa !64
  %48 = load i32, ptr %7, align 4, !tbaa !34
  %49 = call i64 (i64, ptr, ...) @rb_str_catf(i64 noundef %46, ptr noundef @.str.234, ptr noundef %47, i32 noundef %48)
  br label %54

50:                                               ; preds = %38
  %51 = load i64, ptr %3, align 8, !tbaa !35
  %52 = load i32, ptr %7, align 4, !tbaa !34
  %53 = call i64 (i64, ptr, ...) @rb_str_catf(i64 noundef %51, ptr noundef @.str.235, i32 noundef %52)
  br label %54

54:                                               ; preds = %50, %45
  call void @llvm.lifetime.end.p0(i64 8, ptr %8) #27
  call void @llvm.lifetime.end.p0(i64 4, ptr %7) #27
  br label %55

55:                                               ; preds = %54, %30
  %56 = load i32, ptr %4, align 4, !tbaa !34
  %57 = and i32 %56, 127
  %58 = icmp eq i32 %57, 0
  br i1 %58, label %59, label %65

59:                                               ; preds = %55
  %60 = load i64, ptr %3, align 8, !tbaa !35
  %61 = load i32, ptr %4, align 4, !tbaa !34
  %62 = and i32 %61, 65280
  %63 = ashr i32 %62, 8
  %64 = call i64 (i64, ptr, ...) @rb_str_catf(i64 noundef %60, ptr noundef @.str.236, i32 noundef %63)
  br label %65

65:                                               ; preds = %59, %55
  %66 = load i32, ptr %4, align 4, !tbaa !34
  %67 = and i32 %66, 128
  %68 = icmp ne i32 %67, 0
  br i1 %68, label %69, label %72

69:                                               ; preds = %65
  %70 = load i64, ptr %3, align 8, !tbaa !35
  %71 = call i64 @rbimpl_str_cat_cstr(i64 noundef %70, ptr noundef @.str.237)
  br label %72

72:                                               ; preds = %69, %65
  %73 = load i64, ptr %3, align 8, !tbaa !35
  ret i64 %73
}