; Function Attrs: nounwind sspstrong uwtable
define internal fastcc noundef i64 @pst_message_status(i64 noundef returned %0, i32 noundef %1) unnamed_addr #1 {
  %3 = and i32 %1, 255
  %4 = icmp eq i32 %3, 127
  br i1 %4, label %5, label %13

5:                                                ; preds = %2
  %6 = lshr i32 %1, 8
  %7 = and i32 %6, 255
  %8 = tail call ptr @ruby_signal_name(i32 noundef %7) #28
  %.not = icmp eq ptr %8, null
  br i1 %.not, label %11, label %9

9:                                                ; preds = %5
  %10 = tail call i64 (i64, ptr, ...) @rb_str_catf(i64 noundef %0, ptr noundef nonnull @.str.232, ptr noundef nonnull %8, i32 noundef %7) #27
  br label %13

11:                                               ; preds = %5
  %12 = tail call i64 (i64, ptr, ...) @rb_str_catf(i64 noundef %0, ptr noundef nonnull @.str.233, i32 noundef %7) #27
  br label %13

13:                                               ; preds = %9, %11, %2
  %14 = and i32 %1, 127
  %15 = shl nuw nsw i32 %14, 24
  %sext = add nuw i32 %15, 16777216
  %16 = icmp sgt i32 %sext, 33554431
  br i1 %16, label %17, label %23

17:                                               ; preds = %13
  %18 = tail call ptr @ruby_signal_name(i32 noundef %14) #28
  %.not24 = icmp eq ptr %18, null
  br i1 %.not24, label %21, label %19

19:                                               ; preds = %17
  %20 = tail call i64 (i64, ptr, ...) @rb_str_catf(i64 noundef %0, ptr noundef nonnull @.str.234, ptr noundef nonnull %18, i32 noundef %14) #27
  br label %23

21:                                               ; preds = %17
  %22 = tail call i64 (i64, ptr, ...) @rb_str_catf(i64 noundef %0, ptr noundef nonnull @.str.235, i32 noundef %14) #27
  br label %23

23:                                               ; preds = %19, %21, %13
  %24 = icmp eq i32 %14, 0
  br i1 %24, label %25, label %29

25:                                               ; preds = %23
  %26 = lshr i32 %1, 8
  %27 = and i32 %26, 255
  %28 = tail call i64 (i64, ptr, ...) @rb_str_catf(i64 noundef %0, ptr noundef nonnull @.str.236, i32 noundef %27) #27
  br label %29

29:                                               ; preds = %25, %23
  %30 = and i32 %1, 128
  %.not25 = icmp eq i32 %30, 0
  br i1 %.not25, label %33, label %31

31:                                               ; preds = %29
  %32 = tail call i64 @rb_str_cat(i64 noundef %0, ptr noundef nonnull @.str.237, i64 noundef 14) #27
  br label %33

33:                                               ; preds = %31, %29
  ret i64 %0
}